target datalayout = "e-m:e-p270:32:32-p271:32:32-p272:64:64-i64:64-i128:128-f80:128-n8:16:32:64-S128"
target triple = "x86_64-unknown-linux-gnu"

%struct.acpi_platform_list = type { [7 x i8], [9 x i8], i32, ptr, i32, ptr, i32 }
%struct.dmi_system_id = type { ptr, ptr, [4 x %struct.dmi_strmatch], ptr }
%struct.dmi_strmatch = type { i8, [79 x i8] }

@acpi_blacklist = internal global [5 x %struct.acpi_platform_list] [%struct.acpi_platform_list { [7 x i8] c"PTLTD \00", [9 x i8] c"  DSDT  \00", i32 100925440, ptr @.str.4, i32 1, ptr @.str.5, i32 1 }, %struct.acpi_platform_list { [7 x i8] c"SONY  \00", [9 x i8] c"U0      \00", i32 536937235, ptr @.str.4, i32 1, ptr @.str.6, i32 1 }, %struct.acpi_platform_list { [7 x i8] c"INT440\00", [9 x i8] c"SYSFexxx\00", i32 4097, ptr @.str.4, i32 1, ptr @.str.7, i32 1 }, %struct.acpi_platform_list { [7 x i8] c"IBM   \00", [9 x i8] c"TP600E  \00", i32 261, ptr @.str.4, i32 1, ptr @.str.8, i32 1 }, %struct.acpi_platform_list zeroinitializer], section ".init.data", align 16
@.str = private unnamed_addr constant [84 x i8] c"\013ACPI: Vendor \22%6.6s\22 System \22%8.8s\22 Revision 0x%x has a known ACPI BIOS problem.\0A\00", align 1
@.str.1 = private unnamed_addr constant [40 x i8] c"\013ACPI: Reason: %s. This is a %s error\0A\00", align 1
@.str.2 = private unnamed_addr constant [16 x i8] c"non-recoverable\00", align 1
@.str.3 = private unnamed_addr constant [12 x i8] c"recoverable\00", align 1
@.str.4 = private unnamed_addr constant [5 x i8] c"DSDT\00", align 1
@.str.5 = private unnamed_addr constant [18 x i8] c"Multiple problems\00", align 1
@.str.6 = private unnamed_addr constant [20 x i8] c"ACPI driver problem\00", align 1
@.str.7 = private unnamed_addr constant [42 x i8] c"Does not use _REG to protect EC OpRegions\00", align 1
@.str.8 = private unnamed_addr constant [15 x i8] c"Incorrect _ADR\00", align 1
@acpi_rev_dmi_table = internal constant [6 x %struct.dmi_system_id] [%struct.dmi_system_id { ptr @dmi_enable_rev_override, ptr @.str.10, [4 x %struct.dmi_strmatch] [%struct.dmi_strmatch { i8 6, [79 x i8] c"Dell Inc.\00\00\00\00\00\00\00\00\00\00\00\00\00\00\00\00\00\00\00\00\00\00\00\00\00\00\00\00\00\00\00\00\00\00\00\00\00\00\00\00\00\00\00\00\00\00\00\00\00\00\00\00\00\00\00\00\00\00\00\00\00\00\00\00\00\00\00\00\00\00" }, %struct.dmi_strmatch { i8 7, [79 x i8] c"XPS 13 9343\00\00\00\00\00\00\00\00\00\00\00\00\00\00\00\00\00\00\00\00\00\00\00\00\00\00\00\00\00\00\00\00\00\00\00\00\00\00\00\00\00\00\00\00\00\00\00\00\00\00\00\00\00\00\00\00\00\00\00\00\00\00\00\00\00\00\00\00" }, %struct.dmi_strmatch zeroinitializer, %struct.dmi_strmatch zeroinitializer], ptr null }, %struct.dmi_system_id { ptr @dmi_enable_rev_override, ptr @.str.11, [4 x %struct.dmi_strmatch] [%struct.dmi_strmatch { i8 6, [79 x i8] c"Dell Inc.\00\00\00\00\00\00\00\00\00\00\00\00\00\00\00\00\00\00\00\00\00\00\00\00\00\00\00\00\00\00\00\00\00\00\00\00\00\00\00\00\00\00\00\00\00\00\00\00\00\00\00\00\00\00\00\00\00\00\00\00\00\00\00\00\00\00\00\00\00\00" }, %struct.dmi_strmatch { i8 7, [79 x i8] c"Precision 5520\00\00\00\00\00\00\00\00\00\00\00\00\00\00\00\00\00\00\00\00\00\00\00\00\00\00\00\00\00\00\00\00\00\00\00\00\00\00\00\00\00\00\00\00\00\00\00\00\00\00\00\00\00\00\00\00\00\00\00\00\00\00\00\00\00" }, %struct.dmi_strmatch zeroinitializer, %struct.dmi_strmatch zeroinitializer], ptr null }, %struct.dmi_system_id { ptr @dmi_enable_rev_override, ptr @.str.12, [4 x %struct.dmi_strmatch] [%struct.dmi_strmatch { i8 6, [79 x i8] c"Dell Inc.\00\00\00\00\00\00\00\00\00\00\00\00\00\00\00\00\00\00\00\00\00\00\00\00\00\00\00\00\00\00\00\00\00\00\00\00\00\00\00\00\00\00\00\00\00\00\00\00\00\00\00\00\00\00\00\00\00\00\00\00\00\00\00\00\00\00\00\00\00\00" }, %struct.dmi_strmatch { i8 7, [79 x i8] c"Precision 3520\00\00\00\00\00\00\00\00\00\00\00\00\00\00\00\00\00\00\00\00\00\00\00\00\00\00\00\00\00\00\00\00\00\00\00\00\00\00\00\00\00\00\00\00\00\00\00\00\00\00\00\00\00\00\00\00\00\00\00\00\00\00\00\00\00" }, %struct.dmi_strmatch zeroinitializer, %struct.dmi_strmatch zeroinitializer], ptr null }, %struct.dmi_system_id { ptr @dmi_enable_rev_override, ptr @.str.13, [4 x %struct.dmi_strmatch] [%struct.dmi_strmatch { i8 6, [79 x i8] c"Dell Inc.\00\00\00\00\00\00\00\00\00\00\00\00\00\00\00\00\00\00\00\00\00\00\00\00\00\00\00\00\00\00\00\00\00\00\00\00\00\00\00\00\00\00\00\00\00\00\00\00\00\00\00\00\00\00\00\00\00\00\00\00\00\00\00\00\00\00\00\00\00\00" }, %struct.dmi_strmatch { i8 7, [79 x i8] c"Latitude 3350\00\00\00\00\00\00\00\00\00\00\00\00\00\00\00\00\00\00\00\00\00\00\00\00\00\00\00\00\00\00\00\00\00\00\00\00\00\00\00\00\00\00\00\00\00\00\00\00\00\00\00\00\00\00\00\00\00\00\00\00\00\00\00\00\00\00" }, %struct.dmi_strmatch zeroinitializer, %struct.dmi_strmatch zeroinitializer], ptr null }, %struct.dmi_system_id { ptr @dmi_enable_rev_override, ptr @.str.14, [4 x %struct.dmi_strmatch] [%struct.dmi_strmatch { i8 6, [79 x i8] c"Dell Inc.\00\00\00\00\00\00\00\00\00\00\00\00\00\00\00\00\00\00\00\00\00\00\00\00\00\00\00\00\00\00\00\00\00\00\00\00\00\00\00\00\00\00\00\00\00\00\00\00\00\00\00\00\00\00\00\00\00\00\00\00\00\00\00\00\00\00\00\00\00\00" }, %struct.dmi_strmatch { i8 7, [79 x i8] c"Inspiron 7537\00\00\00\00\00\00\00\00\00\00\00\00\00\00\00\00\00\00\00\00\00\00\00\00\00\00\00\00\00\00\00\00\00\00\00\00\00\00\00\00\00\00\00\00\00\00\00\00\00\00\00\00\00\00\00\00\00\00\00\00\00\00\00\00\00\00" }, %struct.dmi_strmatch zeroinitializer, %struct.dmi_strmatch zeroinitializer], ptr null }, %struct.dmi_system_id zeroinitializer], section ".init.rodata", align 16
@.str.10 = private unnamed_addr constant [19 x i8] c"DELL XPS 13 (2015)\00", align 1
@.str.11 = private unnamed_addr constant [20 x i8] c"DELL Precision 5520\00", align 1
@.str.12 = private unnamed_addr constant [20 x i8] c"DELL Precision 3520\00", align 1
@.str.13 = private unnamed_addr constant [19 x i8] c"DELL Latitude 3350\00", align 1
@.str.14 = private unnamed_addr constant [19 x i8] c"DELL Inspiron 7537\00", align 1
@.str.15 = private unnamed_addr constant [49 x i8] c"\015ACPI: DMI detected: %s (force ACPI _REV to 5)\0A\00", align 1

; Function Attrs: cold fn_ret_thunk_extern nounwind null_pointer_is_valid optsize
define dso_local i32 @acpi_blacklisted() local_unnamed_addr #0 section ".init.text" align 16 {
  %1 = tail call i32 @acpi_match_platform_list(ptr noundef nonnull @acpi_blacklist) #3
  %2 = icmp sgt i32 %1, -1
  br i1 %2, label %3, label %18

3:                                                ; preds = %0
  %4 = zext nneg i32 %1 to i64
  %5 = getelementptr [5 x %struct.acpi_platform_list], ptr @acpi_blacklist, i64 0, i64 %4
  %6 = getelementptr inbounds i8, ptr %5, i64 7
  %7 = getelementptr inbounds i8, ptr %5, i64 16
  %8 = load i32, ptr %7, align 8
  %9 = tail call i32 (ptr, ...) @_printk(ptr noundef nonnull @.str, ptr noundef %5, ptr noundef %6, i32 noundef %8) #4
  %10 = getelementptr inbounds i8, ptr %5, i64 40
  %11 = load ptr, ptr %10, align 8
  %12 = getelementptr inbounds i8, ptr %5, i64 48
  %13 = load i32, ptr %12, align 8
  %14 = icmp eq i32 %13, 0
  %15 = select i1 %14, ptr @.str.3, ptr @.str.2
  %16 = tail call i32 (ptr, ...) @_printk(ptr noundef nonnull @.str.1, ptr noundef %11, ptr noundef nonnull %15) #4
  %17 = load i32, ptr %12, align 8
  br label %18

18:                                               ; preds = %3, %0
  %19 = phi i32 [ %17, %3 ], [ 0, %0 ]
  %20 = tail call i32 @early_acpi_osi_init() #3
  %21 = tail call i32 @dmi_check_system(ptr noundef nonnull @acpi_rev_dmi_table) #3
  ret i32 %19
}

; Function Attrs: null_pointer_is_valid
declare dso_local i32 @acpi_match_platform_list(ptr noundef) local_unnamed_addr #1

; Function Attrs: cold null_pointer_is_valid
declare dso_local i32 @_printk(ptr noundef, ...) local_unnamed_addr #2

; Function Attrs: null_pointer_is_valid
declare dso_local i32 @early_acpi_osi_init() local_unnamed_addr #1

; Function Attrs: null_pointer_is_valid
declare dso_local i32 @dmi_check_system(ptr noundef) local_unnamed_addr #1

; Function Attrs: cold fn_ret_thunk_extern nounwind null_pointer_is_valid optsize
define internal noundef i32 @dmi_enable_rev_override(ptr nocapture noundef readonly %0) #0 section ".init.text" align 16 {
  %2 = getelementptr inbounds i8, ptr %0, i64 8
  %3 = load ptr, ptr %2, align 8
  %4 = tail call i32 (ptr, ...) @_printk(ptr noundef nonnull @.str.15, ptr noundef %3) #4
  %5 = tail call i32 @acpi_rev_override_setup(ptr noundef null) #3
  ret i32 0
}

; Function Attrs: null_pointer_is_valid
declare dso_local i32 @acpi_rev_override_setup(ptr noundef) local_unnamed_addr #1


!llvm.module.flags = !{!0, !1, !2, !3, !4}

!0 = !{i32 1, !"wchar_size", i32 2}
!1 = !{i32 8, !"cf-protection-branch", i32 1}
!2 = !{i32 4, !"function_return_thunk_extern", i32 1}
!3 = !{i32 4, !"indirect_branch_cs_prefix", i32 1}
!4 = !{i32 4, !"SkipRaxSetup", i32 1}
